target datalayout = "e-m:e-p270:32:32-p271:32:32-p272:64:64-i64:64-i128:128-f80:128-n8:16:32:64-S128"
target triple = "x86_64-pc-linux-gnu"

%"struct.boost::wave::cpplexer::re2clex::tag_aq_queuetype" = type { i64, i64, i64, i64, ptr }

; Function Attrs: mustprogress nounwind uwtable
define noundef i32 @_ZN5boost4wave8cpplexer7re2clex6aq_popEPNS2_16tag_aq_queuetypeE(ptr noundef %0) #0 {
  %2 = alloca i32, align 4
  %3 = alloca ptr, align 8
  store ptr %0, ptr %3, align 8, !tbaa !3
  %4 = load ptr, ptr %3, align 8, !tbaa !3
  %5 = getelementptr inbounds nuw %"struct.boost::wave::cpplexer::re2clex::tag_aq_queuetype", ptr %4, i32 0, i32 2
  %6 = load i64, ptr %5, align 8, !tbaa !14
  %7 = icmp eq i64 %6, 0
  br i1 %7, label %8, label %9

8:                                                ; preds = %1
  store i32 0, ptr %2, align 4
  br label %29

9:                                                ; preds = %1
  %10 = load ptr, ptr %3, align 8, !tbaa !3
  %11 = getelementptr inbounds nuw %"struct.boost::wave::cpplexer::re2clex::tag_aq_queuetype", ptr %10, i32 0, i32 0
  %12 = load i64, ptr %11, align 8, !tbaa !13
  %13 = add i64 %12, 1
  store i64 %13, ptr %11, align 8, !tbaa !13
  %14 = load ptr, ptr %3, align 8, !tbaa !3
  %15 = getelementptr inbounds nuw %"struct.boost::wave::cpplexer::re2clex::tag_aq_queuetype", ptr %14, i32 0, i32 0
  %16 = load i64, ptr %15, align 8, !tbaa !13
  %17 = load ptr, ptr %3, align 8, !tbaa !3
  %18 = getelementptr inbounds nuw %"struct.boost::wave::cpplexer::re2clex::tag_aq_queuetype", ptr %17, i32 0, i32 3
  %19 = load i64, ptr %18, align 8, !tbaa !7
  %20 = icmp eq i64 %16, %19
  br i1 %20, label %21, label %24

21:                                               ; preds = %9
  %22 = load ptr, ptr %3, align 8, !tbaa !3
  %23 = getelementptr inbounds nuw %"struct.boost::wave::cpplexer::re2clex::tag_aq_queuetype", ptr %22, i32 0, i32 0
  store i64 0, ptr %23, align 8, !tbaa !13
  br label %24

24:                                               ; preds = %21, %9
  %25 = load ptr, ptr %3, align 8, !tbaa !3
  %26 = getelementptr inbounds nuw %"struct.boost::wave::cpplexer::re2clex::tag_aq_queuetype", ptr %25, i32 0, i32 2
  %27 = load i64, ptr %26, align 8, !tbaa !14
  %28 = add i64 %27, -1
  store i64 %28, ptr %26, align 8, !tbaa !14
  store i32 1, ptr %2, align 4
  br label %29

29:                                               ; preds = %24, %8
  %30 = load i32, ptr %2, align 4
  ret i32 %30
}

; Function Attrs: mustprogress uwtable
define hidden noundef i32 @_ZN5boost4wave8cpplexer7re2clex8aq_serveEPNS2_16tag_aq_queuetypeEPm(ptr noundef %0, ptr noundef %1) #4 {
  %3 = alloca i32, align 4
  %4 = alloca ptr, align 8
  %5 = alloca ptr, align 8
  store ptr %0, ptr %4, align 8, !tbaa !3
  store ptr %1, ptr %5, align 8, !tbaa !3
  %6 = load ptr, ptr %4, align 8, !tbaa !3
  %7 = getelementptr inbounds nuw %"struct.boost::wave::cpplexer::re2clex::tag_aq_queuetype", ptr %6, i32 0, i32 2
  %8 = load i64, ptr %7, align 8, !tbaa !14
  %9 = icmp eq i64 %8, 0
  br i1 %9, label %10, label %11

10:                                               ; preds = %2
  store i32 0, ptr %3, align 4
  br label %23

11:                                               ; preds = %2
  %12 = load ptr, ptr %4, align 8, !tbaa !3
  %13 = getelementptr inbounds nuw %"struct.boost::wave::cpplexer::re2clex::tag_aq_queuetype", ptr %12, i32 0, i32 4
  %14 = load ptr, ptr %13, align 8, !tbaa !11
  %15 = load ptr, ptr %4, align 8, !tbaa !3
  %16 = getelementptr inbounds nuw %"struct.boost::wave::cpplexer::re2clex::tag_aq_queuetype", ptr %15, i32 0, i32 0
  %17 = load i64, ptr %16, align 8, !tbaa !13
  %18 = getelementptr inbounds nuw i64, ptr %14, i64 %17
  %19 = load i64, ptr %18, align 8, !tbaa !10
  %20 = load ptr, ptr %5, align 8, !tbaa !3
  store i64 %19, ptr %20, align 8, !tbaa !10
  %21 = load ptr, ptr %4, align 8, !tbaa !3
  %22 = call noundef i32 @_ZN5boost4wave8cpplexer7re2clex6aq_popEPNS2_16tag_aq_queuetypeE(ptr noundef %21)
  store i32 %22, ptr %3, align 4
  br label %23

23:                                               ; preds = %11, %10
  %24 = load i32, ptr %3, align 4
  ret i32 %24
}