; Function Attrs: mustprogress nofree norecurse nosync nounwind willreturn memory(read, argmem: readwrite, inaccessiblemem: none) uwtable
define hidden noundef range(i32 0, 2) i32 @_ZN5boost4wave8cpplexer7re2clex8aq_serveEPNS2_16tag_aq_queuetypeEPm(ptr nocapture noundef %0, ptr nocapture noundef writeonly %1) local_unnamed_addr #3 {
  %3 = getelementptr inbounds nuw i8, ptr %0, i64 16
  %4 = load i64, ptr %3, align 8, !tbaa !12
  %5 = icmp eq i64 %4, 0
  br i1 %5, label %_ZN5boost4wave8cpplexer7re2clex6aq_popEPNS2_16tag_aq_queuetypeE.exit, label %6

6:                                                ; preds = %2
  %7 = getelementptr inbounds nuw i8, ptr %0, i64 32
  %8 = load ptr, ptr %7, align 8, !tbaa !9
  %9 = load i64, ptr %0, align 8, !tbaa !11
  %10 = getelementptr inbounds nuw i64, ptr %8, i64 %9
  %11 = load i64, ptr %10, align 8, !tbaa !13
  store i64 %11, ptr %1, align 8, !tbaa !13
  %12 = load i64, ptr %3, align 8, !tbaa !12
  %13 = icmp eq i64 %12, 0
  br i1 %13, label %_ZN5boost4wave8cpplexer7re2clex6aq_popEPNS2_16tag_aq_queuetypeE.exit, label %14

14:                                               ; preds = %6
  %15 = load i64, ptr %0, align 8, !tbaa !11
  %16 = add i64 %15, 1
  %17 = getelementptr inbounds nuw i8, ptr %0, i64 24
  %18 = load i64, ptr %17, align 8, !tbaa !3
  %19 = icmp eq i64 %16, %18
  %spec.store.select.i = select i1 %19, i64 0, i64 %16
  store i64 %spec.store.select.i, ptr %0, align 8
  %20 = add i64 %12, -1
  store i64 %20, ptr %3, align 8, !tbaa !12
  br label %_ZN5boost4wave8cpplexer7re2clex6aq_popEPNS2_16tag_aq_queuetypeE.exit

_ZN5boost4wave8cpplexer7re2clex6aq_popEPNS2_16tag_aq_queuetypeE.exit: ; preds = %14, %6, %2
  %.0 = phi i32 [ 0, %2 ], [ 1, %14 ], [ 0, %6 ]
  ret i32 %.0
}